   1               		.file	"terminal.c"
   2               	__SREG__ = 0x3f
   3               	__SP_H__ = 0x3e
   4               	__SP_L__ = 0x3d
   5               	__CCP__  = 0x34
   6               	__tmp_reg__ = 0
   7               	__zero_reg__ = 1
   8               		.global __do_copy_data
   9               		.global __do_clear_bss
  17               	.Ltext0:
  19               	GetCLParmStr:
  20               	.LFB6:
  21               	.LM1:
  22               	.LVL0:
  23               	/* prologue: function */
  24               	/* frame size = 0 */
  25 0000 AC01      		movw r20,r24
  26               	.LM2:
  27 0002 20E0      		ldi r18,lo8(0)
  28               	.LVL1:
  29 0004 00C0      		rjmp .L2
  30               	.LVL2:
  31               	.L3:
  32               	.LM3:
  33 0006 2F5F      		subi r18,lo8(-(1))
  34               	.LVL3:
  35               	.L2:
  36 0008 FA01      		movw r30,r20
  37 000a E20F      		add r30,r18
  38 000c F11D      		adc r31,__zero_reg__
  39 000e 8081      		ld r24,Z
  40 0010 8032      		cpi r24,lo8(32)
  41 0012 01F0      		breq .L3
  42 0014 90E0      		ldi r25,lo8(0)
  43               	.LVL4:
  44 0016 00C0      		rjmp .L4
  45               	.L6:
  46               	.LM4:
  47 0018 2F5F      		subi r18,lo8(-(1))
  48               	.L11:
  49 001a FA01      		movw r30,r20
  50 001c E20F      		add r30,r18
  51 001e F11D      		adc r31,__zero_reg__
  52 0020 E081      		ld r30,Z
  53 0022 EE23      		tst r30
  54 0024 01F0      		breq .L10
  55 0026 E032      		cpi r30,lo8(32)
  56 0028 01F4      		brne .L6
  57 002a 00C0      		rjmp .L10
  58               	.L7:
  59               	.LM5:
  60 002c 2F5F      		subi r18,lo8(-(1))
  61               	.L10:
  62 002e FA01      		movw r30,r20
  63 0030 E20F      		add r30,r18
  64 0032 F11D      		adc r31,__zero_reg__
  65 0034 8081      		ld r24,Z
  66 0036 8032      		cpi r24,lo8(32)
  67 0038 01F0      		breq .L7
  68               	.LM6:
  69 003a 9F5F      		subi r25,lo8(-(1))
  70               	.L4:
  71 003c 9617      		cp r25,r22
  72 003e 00F0      		brlo .L11
  73 0040 CA01      		movw r24,r20
  74 0042 820F      		add r24,r18
  75 0044 911D      		adc r25,__zero_reg__
  76               	/* epilogue start */
  77               	.LM7:
  78 0046 0895      		ret
  79               	.LFE6:
  82               	TellError:
  83               	.LFB7:
  84               	.LM8:
  85               	.LVL5:
  86               	/* prologue: function */
  87               	/* frame size = 0 */
  88               	.LM9:
  89 0048 8230      		cpi r24,lo8(2)
  90 004a 01F4      		brne .L17
  91               	.LM10:
  92 004c 80E0      		ldi r24,lo8(__c.1903)
  93 004e 90E0      		ldi r25,hi8(__c.1903)
  94               	.LVL6:
  95 0050 00C0      		rjmp .L18
  96               	.LVL7:
  97               	.L17:
  98               	.LM11:
  99 0052 80E0      		ldi r24,lo8(__c.1907)
 100 0054 90E0      		ldi r25,hi8(__c.1907)
 101               	.LVL8:
 102               	.L18:
 103 0056 0E94 0000 		call term_puts_p
 104 005a 0895      		ret
 105               	.LFE7:
 107               	.global	CommandShell
 109               	CommandShell:
 110               	.LFB8:
 111               	.LM12:
 112               	.LVL9:
 113 005c FF92      		push r15
 114 005e 0F93      		push r16
 115 0060 1F93      		push r17
 116 0062 DF93      		push r29
 117 0064 CF93      		push r28
 118 0066 CDB7      		in r28,__SP_L__
 119 0068 DEB7      		in r29,__SP_H__
 120 006a 6097      		sbiw r28,16
 121 006c 0FB6      		in __tmp_reg__,__SREG__
 122 006e F894      		cli
 123 0070 DEBF      		out __SP_H__,r29
 124 0072 0FBE      		out __SREG__,__tmp_reg__
 125 0074 CDBF      		out __SP_L__,r28
 126               	/* prologue: function */
 127               	/* frame size = 16 */
 128 0076 8C01      		movw r16,r24
 129               	.LM13:
 130 0078 FC01      		movw r30,r24
 131 007a 8081      		ld r24,Z
 132               	.LVL10:
 133 007c 8823      		tst r24
 134 007e 01F4      		brne .L20
 135               	.LM14:
 136 0080 80E0      		ldi r24,lo8(__c.1917)
 137 0082 90E0      		ldi r25,hi8(__c.1917)
 138 0084 0E94 0000 		call term_puts_p
 139               	.LM15:
 140 0088 1092 0000 		sts getState.1914,__zero_reg__
 141 008c 00C0      		rjmp .L60
 142               	.L20:
 143               	.LM16:
 144 008e 8038      		cpi r24,lo8(-128)
 145 0090 01F4      		brne .L22
 146               	.LM17:
 147 0092 80E0      		ldi r24,lo8(__c.1919)
 148 0094 90E0      		ldi r25,hi8(__c.1919)
 149 0096 0E94 0000 		call term_puts_p
 150               	.LM18:
 151 009a 80E0      		ldi r24,lo8(cl.1913)
 152 009c 90E0      		ldi r25,hi8(cl.1913)
 153 009e 0E94 0000 		call term_puts
 154               	.L60:
 155               	.LM19:
 156 00a2 81E0      		ldi r24,lo8(1)
 157 00a4 F801      		movw r30,r16
 158 00a6 8083      		st Z,r24
 159 00a8 00C0      		rjmp .L21
 160               	.L22:
 161               	.LBB56:
 162               	.LBB57:
 163               	.LM20:
 164 00aa 8091 0000 		lds r24,getState.1914
 165 00ae 8823      		tst r24
 166 00b0 01F4      		brne .L23
 167               	.LM21:
 168 00b2 81E0      		ldi r24,lo8(1)
 169 00b4 8093 0000 		sts getState.1914,r24
 170               	.LM22:
 171 00b8 1092 0000 		sts cl.1913,__zero_reg__
 172               	.LM23:
 173 00bc 1092 0000 		sts len.1858,__zero_reg__
 174               	.L23:
 175               	.LBE57:
 176               	.LM24:
 177 00c0 0E94 0000 		call term_getc
 178 00c4 9C01      		movw r18,r24
 179               	.LVL11:
 180               	.LBB58:
 181               	.LM25:
 182 00c6 8070      		andi r24,lo8(-256)
 183 00c8 892B      		or r24,r25
 184 00ca 01F4      		brne .L21
 185               	.LM26:
 186 00cc 2830      		cpi r18,lo8(8)
 187               	.LVL12:
 188 00ce 01F0      		breq .L25
 189 00d0 E091 0000 		lds r30,len.1858
 190 00d4 2D30      		cpi r18,lo8(13)
 191 00d6 01F4      		brne .L57
 192 00d8 00C0      		rjmp .L67
 193               	.L25:
 194               	.LM27:
 195 00da E091 0000 		lds r30,len.1858
 196 00de EE23      		tst r30
 197 00e0 01F0      		breq .L21
 198               	.LM28:
 199 00e2 E150      		subi r30,lo8(-(-1))
 200 00e4 E093 0000 		sts len.1858,r30
 201 00e8 F0E0      		ldi r31,lo8(0)
 202 00ea E050      		subi r30,lo8(-(cl.1913))
 203 00ec F040      		sbci r31,hi8(-(cl.1913))
 204 00ee 1082      		st Z,__zero_reg__
 205               	.LM29:
 206 00f0 88E0      		ldi r24,lo8(8)
 207 00f2 0E94 0000 		call term_putc
 208               	.LVL13:
 209               	.LM30:
 210 00f6 80E2      		ldi r24,lo8(32)
 211 00f8 0E94 0000 		call term_putc
 212               	.LM31:
 213 00fc 88E0      		ldi r24,lo8(8)
 214 00fe 00C0      		rjmp .L61
 215               	.LVL14:
 216               	.L67:
 217               	.LM32:
 218 0100 F0E0      		ldi r31,lo8(0)
 219 0102 E050      		subi r30,lo8(-(cl.1913))
 220 0104 F040      		sbci r31,hi8(-(cl.1913))
 221 0106 1082      		st Z,__zero_reg__
 222               	.LM33:
 223 0108 82E0      		ldi r24,lo8(2)
 224 010a 8093 0000 		sts getState.1914,r24
 225 010e 00C0      		rjmp .L21
 226               	.L57:
 227               	.LM34:
 228 0110 AE2F      		mov r26,r30
 229 0112 B0E0      		ldi r27,lo8(0)
 230 0114 A133      		cpi r26,49
 231 0116 B105      		cpc r27,__zero_reg__
 232 0118 04F4      		brge .L21
 233               	.LM35:
 234 011a A050      		subi r26,lo8(-(cl.1913))
 235 011c B040      		sbci r27,hi8(-(cl.1913))
 236 011e 2C93      		st X,r18
 237 0120 EF5F      		subi r30,lo8(-(1))
 238 0122 E093 0000 		sts len.1858,r30
 239               	.LM36:
 240 0126 822F      		mov r24,r18
 241               	.L61:
 242 0128 0E94 0000 		call term_putc
 243               	.LVL15:
 244               	.L21:
 245               	.LBE58:
 246               	.LBE56:
 247               	.LM37:
 248 012c F090 0000 		lds r15,getState.1914
 249 0130 F2E0      		ldi r31,lo8(2)
 250 0132 FF16      		cp r15,r31
 251 0134 01F0      		breq .+2
 252 0136 00C0      		rjmp .L56
 253               	.LM38:
 254 0138 1092 0000 		sts getState.1914,__zero_reg__
 255               	.LM39:
 256 013c F801      		movw r30,r16
 257 013e 1082      		st Z,__zero_reg__
 258               	.LM40:
 259 0140 0E94 0000 		call term_put_cr
 260               	.LVL16:
 261               	.LM41:
 262 0144 80E0      		ldi r24,lo8(cl.1913)
 263 0146 90E0      		ldi r25,hi8(cl.1913)
 264 0148 60E0      		ldi r22,lo8(__c.1921)
 265 014a 70E0      		ldi r23,hi8(__c.1921)
 266 014c 44E0      		ldi r20,lo8(4)
 267 014e 50E0      		ldi r21,hi8(4)
 268 0150 0E94 0000 		call strncmp_P
 269 0154 892B      		or r24,r25
 270 0156 01F4      		brne .L28
 271               	.LBB59:
 272               	.LM42:
 273 0158 80E0      		ldi r24,lo8(__c.1810)
 274 015a 90E0      		ldi r25,hi8(__c.1810)
 275 015c 0E94 0000 		call term_puts_p
 276               	.LM43:
 277 0160 80E0      		ldi r24,lo8(__c.1812)
 278 0162 90E0      		ldi r25,hi8(__c.1812)
 279 0164 0E94 0000 		call term_puts_p
 280               	.LM44:
 281 0168 80E0      		ldi r24,lo8(__c.1814)
 282 016a 90E0      		ldi r25,hi8(__c.1814)
 283 016c 0E94 0000 		call term_puts_p
 284               	.LM45:
 285 0170 80E0      		ldi r24,lo8(__c.1816)
 286 0172 90E0      		ldi r25,hi8(__c.1816)
 287 0174 0E94 0000 		call term_puts_p
 288               	.LM46:
 289 0178 80E0      		ldi r24,lo8(__c.1818)
 290 017a 90E0      		ldi r25,hi8(__c.1818)
 291 017c 0E94 0000 		call term_puts_p
 292               	.LM47:
 293 0180 80E0      		ldi r24,lo8(__c.1820)
 294 0182 90E0      		ldi r25,hi8(__c.1820)
 295 0184 0E94 0000 		call term_puts_p
 296               	.LM48:
 297 0188 80E0      		ldi r24,lo8(__c.1822)
 298 018a 90E0      		ldi r25,hi8(__c.1822)
 299 018c 0E94 0000 		call term_puts_p
 300               	.LM49:
 301 0190 80E0      		ldi r24,lo8(__c.1824)
 302 0192 90E0      		ldi r25,hi8(__c.1824)
 303 0194 0E94 0000 		call term_puts_p
 304               	.LM50:
 305 0198 80E0      		ldi r24,lo8(__c.1826)
 306 019a 90E0      		ldi r25,hi8(__c.1826)
 307 019c 0E94 0000 		call term_puts_p
 308               	.LM51:
 309 01a0 80E0      		ldi r24,lo8(__c.1828)
 310 01a2 90E0      		ldi r25,hi8(__c.1828)
 311 01a4 00C0      		rjmp .L64
 312               	.L28:
 313               	.LBE59:
 314               	.LM52:
 315 01a6 80E0      		ldi r24,lo8(cl.1913)
 316 01a8 90E0      		ldi r25,hi8(cl.1913)
 317 01aa 60E0      		ldi r22,lo8(__c.1923)
 318 01ac 70E0      		ldi r23,hi8(__c.1923)
 319 01ae 44E0      		ldi r20,lo8(4)
 320 01b0 50E0      		ldi r21,hi8(4)
 321 01b2 0E94 0000 		call strncmp_P
 322 01b6 892B      		or r24,r25
 323 01b8 01F4      		brne .L30
 324               	.LM53:
 325 01ba 80E0      		ldi r24,lo8(__c.1925)
 326 01bc 90E0      		ldi r25,hi8(__c.1925)
 327 01be 0E94 0000 		call term_puts_p
 328               	.LM54:
 329 01c2 F801      		movw r30,r16
 330 01c4 F082      		st Z,r15
 331 01c6 00C0      		rjmp .L29
 332               	.L30:
 333               	.LM55:
 334 01c8 80E0      		ldi r24,lo8(cl.1913)
 335 01ca 90E0      		ldi r25,hi8(cl.1913)
 336 01cc 60E0      		ldi r22,lo8(__c.1927)
 337 01ce 70E0      		ldi r23,hi8(__c.1927)
 338 01d0 44E0      		ldi r20,lo8(4)
 339 01d2 50E0      		ldi r21,hi8(4)
 340 01d4 0E94 0000 		call strncmp_P
 341 01d8 892B      		or r24,r25
 342 01da 01F4      		brne .L31
 343               	.LM56:
 344 01dc 80E0      		ldi r24,lo8(cl.1913)
 345 01de 90E0      		ldi r25,hi8(cl.1913)
 346 01e0 61E0      		ldi r22,lo8(1)
 347 01e2 0E94 0000 		call GetCLParmStr
 348 01e6 60E0      		ldi r22,lo8(__c.1929)
 349 01e8 70E0      		ldi r23,hi8(__c.1929)
 350 01ea 43E0      		ldi r20,lo8(3)
 351 01ec 50E0      		ldi r21,hi8(3)
 352 01ee 0E94 0000 		call strncmp_P
 353 01f2 892B      		or r24,r25
 354 01f4 01F0      		breq .+2
 355 01f6 00C0      		rjmp .L43
 356               	.LBB60:
 357               	.LM57:
 358 01f8 80E0      		ldi r24,lo8(__c.1833)
 359 01fa 90E0      		ldi r25,hi8(__c.1833)
 360 01fc 0E94 0000 		call term_puts_p
 361               	.LM58:
 362 0200 80E0      		ldi r24,lo8(__c.1835)
 363 0202 90E0      		ldi r25,hi8(__c.1835)
 364 0204 0E94 0000 		call term_puts_p
 365               	.LBB61:
 366               	.LM59:
 367 0208 8091 0000 		lds r24,gCANAutoProcess
 368 020c 8823      		tst r24
 369 020e 01F0      		breq .L33
 370               	.LBE61:
 371               	.LM60:
 372 0210 80E0      		ldi r24,lo8(__c.1837)
 373 0212 90E0      		ldi r25,hi8(__c.1837)
 374 0214 00C0      		rjmp .L62
 375               	.L33:
 376               	.LM61:
 377 0216 80E0      		ldi r24,lo8(__c.1839)
 378 0218 90E0      		ldi r25,hi8(__c.1839)
 379               	.L62:
 380 021a 0E94 0000 		call term_puts_p
 381               	.LM62:
 382 021e 80E0      		ldi r24,lo8(__c.1841)
 383 0220 90E0      		ldi r25,hi8(__c.1841)
 384 0222 0E94 0000 		call term_puts_p
 385               	.LM63:
 386 0226 80E0      		ldi r24,lo8(__c.1843)
 387 0228 90E0      		ldi r25,hi8(__c.1843)
 388 022a 0E94 0000 		call term_puts_p
 389               	.LBB62:
 390               	.LM64:
 391 022e 8091 0000 		lds r24,gTimedSend
 392 0232 8823      		tst r24
 393 0234 01F0      		breq .L35
 394               	.LBE62:
 395 0236 80E0      		ldi r24,lo8(__c.1845)
 396 0238 90E0      		ldi r25,hi8(__c.1845)
 397 023a 00C0      		rjmp .L63
 398               	.L35:
 399 023c 80E0      		ldi r24,lo8(__c.1847)
 400 023e 90E0      		ldi r25,hi8(__c.1847)
 401               	.L63:
 402 0240 0E94 0000 		call term_puts_p
 403               	.LM65:
 404 0244 80E0      		ldi r24,lo8(__c.1849)
 405 0246 90E0      		ldi r25,hi8(__c.1849)
 406               	.L64:
 407 0248 0E94 0000 		call term_puts_p
 408 024c 00C0      		rjmp .L29
 409               	.L31:
 410               	.LBE60:
 411               	.LM66:
 412 024e 80E0      		ldi r24,lo8(cl.1913)
 413 0250 90E0      		ldi r25,hi8(cl.1913)
 414 0252 60E0      		ldi r22,lo8(__c.1931)
 415 0254 70E0      		ldi r23,hi8(__c.1931)
 416 0256 43E0      		ldi r20,lo8(3)
 417 0258 50E0      		ldi r21,hi8(3)
 418 025a 0E94 0000 		call strncmp_P
 419 025e 892B      		or r24,r25
 420 0260 01F0      		breq .+2
 421 0262 00C0      		rjmp .L37
 422               	.LM67:
 423 0264 80E0      		ldi r24,lo8(cl.1913)
 424 0266 90E0      		ldi r25,hi8(cl.1913)
 425 0268 61E0      		ldi r22,lo8(1)
 426 026a 0E94 0000 		call GetCLParmStr
 427 026e 60E0      		ldi r22,lo8(__c.1933)
 428 0270 70E0      		ldi r23,hi8(__c.1933)
 429 0272 42E0      		ldi r20,lo8(2)
 430 0274 50E0      		ldi r21,hi8(2)
 431 0276 0E94 0000 		call strncmp_P
 432 027a 892B      		or r24,r25
 433 027c 01F4      		brne .L38
 434               	.LM68:
 435 027e 83E0      		ldi r24,lo8(3)
 436 0280 0E94 0000 		call gpio_clear_led
 437 0284 00C0      		rjmp .L29
 438               	.L38:
 439               	.LM69:
 440 0286 80E0      		ldi r24,lo8(cl.1913)
 441 0288 90E0      		ldi r25,hi8(cl.1913)
 442 028a 61E0      		ldi r22,lo8(1)
 443 028c 0E94 0000 		call GetCLParmStr
 444 0290 60E0      		ldi r22,lo8(__c.1935)
 445 0292 70E0      		ldi r23,hi8(__c.1935)
 446 0294 42E0      		ldi r20,lo8(2)
 447 0296 50E0      		ldi r21,hi8(2)
 448 0298 0E94 0000 		call strncmp_P
 449 029c 892B      		or r24,r25
 450 029e 01F4      		brne .L39
 451               	.LM70:
 452 02a0 83E0      		ldi r24,lo8(3)
 453 02a2 0E94 0000 		call gpio_set_led
 454 02a6 00C0      		rjmp .L29
 455               	.L39:
 456               	.LM71:
 457 02a8 80E0      		ldi r24,lo8(cl.1913)
 458 02aa 90E0      		ldi r25,hi8(cl.1913)
 459 02ac 61E0      		ldi r22,lo8(1)
 460 02ae 0E94 0000 		call GetCLParmStr
 461 02b2 60E0      		ldi r22,lo8(__c.1937)
 462 02b4 70E0      		ldi r23,hi8(__c.1937)
 463 02b6 41E0      		ldi r20,lo8(1)
 464 02b8 50E0      		ldi r21,hi8(1)
 465 02ba 0E94 0000 		call strncmp_P
 466 02be 892B      		or r24,r25
 467 02c0 01F0      		breq .+2
 468 02c2 00C0      		rjmp .L29
 469               	.LM72:
 470 02c4 80E0      		ldi r24,lo8(cl.1913)
 471 02c6 90E0      		ldi r25,hi8(cl.1913)
 472 02c8 62E0      		ldi r22,lo8(2)
 473 02ca 0E94 0000 		call GetCLParmStr
 474 02ce 0E94 0000 		call atoi
 475 02d2 282F      		mov r18,r24
 476               	.LM73:
 477 02d4 8430      		cpi r24,lo8(4)
 478 02d6 00F0      		brlo .+2
 479 02d8 00C0      		rjmp .L29
 480               	.LM74:
 481 02da 81E0      		ldi r24,lo8(1)
 482 02dc 90E0      		ldi r25,hi8(1)
 483 02de 00C0      		rjmp 2f
 484 02e0 880F      	1:	lsl r24
 485 02e2 991F      		rol r25
 486 02e4 2A95      	2:	dec r18
 487 02e6 02F4      		brpl 1b
 488               	.LM75:
 489 02e8 0E94 0000 		call gpio_toggle_led
 490 02ec 00C0      		rjmp .L29
 491               	.L37:
 492               	.LM76:
 493 02ee 80E0      		ldi r24,lo8(cl.1913)
 494 02f0 90E0      		ldi r25,hi8(cl.1913)
 495 02f2 60E0      		ldi r22,lo8(__c.1939)
 496 02f4 70E0      		ldi r23,hi8(__c.1939)
 497 02f6 43E0      		ldi r20,lo8(3)
 498 02f8 50E0      		ldi r21,hi8(3)
 499 02fa 0E94 0000 		call strncmp_P
 500 02fe 892B      		or r24,r25
 501 0300 01F4      		brne .L40
 502               	.LM77:
 503 0302 80E0      		ldi r24,lo8(cl.1913)
 504 0304 90E0      		ldi r25,hi8(cl.1913)
 505 0306 61E0      		ldi r22,lo8(1)
 506 0308 0E94 0000 		call GetCLParmStr
 507 030c 60E0      		ldi r22,lo8(__c.1941)
 508 030e 70E0      		ldi r23,hi8(__c.1941)
 509 0310 43E0      		ldi r20,lo8(3)
 510 0312 50E0      		ldi r21,hi8(3)
 511 0314 0E94 0000 		call strncmp_P
 512 0318 892B      		or r24,r25
 513 031a 01F4      		brne .L41
 514               	.LM78:
 515 031c 0E94 0000 		call mcp2515_readStatus
 516 0320 682F      		mov r22,r24
 517 0322 80E0      		ldi r24,lo8(__c.1943)
 518 0324 90E0      		ldi r25,hi8(__c.1943)
 519 0326 00C0      		rjmp .L65
 520               	.L41:
 521               	.LM79:
 522 0328 80E0      		ldi r24,lo8(cl.1913)
 523 032a 90E0      		ldi r25,hi8(cl.1913)
 524 032c 61E0      		ldi r22,lo8(1)
 525 032e 0E94 0000 		call GetCLParmStr
 526 0332 60E0      		ldi r22,lo8(__c.1945)
 527 0334 70E0      		ldi r23,hi8(__c.1945)
 528 0336 43E0      		ldi r20,lo8(3)
 529 0338 50E0      		ldi r21,hi8(3)
 530 033a 0E94 0000 		call strncmp_P
 531 033e 892B      		or r24,r25
 532 0340 01F0      		breq .+2
 533 0342 00C0      		rjmp .L43
 534               	.LM80:
 535 0344 8CE1      		ldi r24,lo8(28)
 536 0346 0E94 0000 		call mcp2515_readRegister
 537 034a 682F      		mov r22,r24
 538 034c 80E0      		ldi r24,lo8(__c.1947)
 539 034e 90E0      		ldi r25,hi8(__c.1947)
 540 0350 0E94 0000 		call Debug_ByteToUart_p
 541               	.LM81:
 542 0354 8DE1      		ldi r24,lo8(29)
 543 0356 0E94 0000 		call mcp2515_readRegister
 544 035a 682F      		mov r22,r24
 545 035c 80E0      		ldi r24,lo8(__c.1949)
 546 035e 90E0      		ldi r25,hi8(__c.1949)
 547 0360 0E94 0000 		call Debug_ByteToUart_p
 548               	.LM82:
 549 0364 8DE2      		ldi r24,lo8(45)
 550 0366 0E94 0000 		call mcp2515_readRegister
 551 036a 682F      		mov r22,r24
 552 036c 80E0      		ldi r24,lo8(__c.1951)
 553 036e 90E0      		ldi r25,hi8(__c.1951)
 554               	.L65:
 555 0370 0E94 0000 		call Debug_ByteToUart_p
 556 0374 00C0      		rjmp .L29
 557               	.L40:
 558               	.LM83:
 559 0376 80E0      		ldi r24,lo8(cl.1913)
 560 0378 90E0      		ldi r25,hi8(cl.1913)
 561 037a 60E0      		ldi r22,lo8(__c.1953)
 562 037c 70E0      		ldi r23,hi8(__c.1953)
 563 037e 43E0      		ldi r20,lo8(3)
 564 0380 50E0      		ldi r21,hi8(3)
 565 0382 0E94 0000 		call strncmp_P
 566 0386 892B      		or r24,r25
 567 0388 01F0      		breq .+2
 568 038a 00C0      		rjmp .L43
 569               	.LM84:
 570 038c 80E0      		ldi r24,lo8(cl.1913)
 571 038e 90E0      		ldi r25,hi8(cl.1913)
 572 0390 61E0      		ldi r22,lo8(1)
 573 0392 0E94 0000 		call GetCLParmStr
 574 0396 60E0      		ldi r22,lo8(__c.1955)
 575 0398 70E0      		ldi r23,hi8(__c.1955)
 576 039a 44E0      		ldi r20,lo8(4)
 577 039c 50E0      		ldi r21,hi8(4)
 578 039e 0E94 0000 		call strncmp_P
 579 03a2 892B      		or r24,r25
 580 03a4 01F0      		breq .L44
 581 03a6 00C0      		rjmp .L68
 582               	.LVL17:
 583               	.L46:
 584               	.LM85:
 585 03a8 C801      		movw r24,r16
 586 03aa 0E94 0000 		call can_dumpMessage
 587 03ae 00C0      		rjmp .L59
 588               	.LVL18:
 589               	.L44:
 590               	.LM86:
 591 03b0 8E01      		movw r16,r28
 592               	.LVL19:
 593 03b2 0F5F      		subi r16,lo8(-(1))
 594 03b4 1F4F      		sbci r17,hi8(-(1))
 595               	.L59:
 596 03b6 C801      		movw r24,r16
 597 03b8 0E94 0000 		call can_readMessage
 598 03bc 8823      		tst r24
 599 03be 01F0      		breq .L46
 600 03c0 00C0      		rjmp .L29
 601               	.LVL20:
 602               	.L68:
 603               	.LM87:
 604 03c2 80E0      		ldi r24,lo8(cl.1913)
 605 03c4 90E0      		ldi r25,hi8(cl.1913)
 606 03c6 61E0      		ldi r22,lo8(1)
 607 03c8 0E94 0000 		call GetCLParmStr
 608 03cc 60E0      		ldi r22,lo8(__c.1960)
 609 03ce 70E0      		ldi r23,hi8(__c.1960)
 610 03d0 43E0      		ldi r20,lo8(3)
 611 03d2 50E0      		ldi r21,hi8(3)
 612 03d4 0E94 0000 		call strncmp_P
 613 03d8 892B      		or r24,r25
 614 03da 01F4      		brne .L47
 615               	.LM88:
 616 03dc 80E0      		ldi r24,lo8(cl.1913)
 617 03de 90E0      		ldi r25,hi8(cl.1913)
 618 03e0 63E0      		ldi r22,lo8(3)
 619 03e2 0E94 0000 		call GetCLParmStr
 620 03e6 0E94 0000 		call atoi
 621 03ea 182F      		mov r17,r24
 622               	.LVL21:
 623               	.LM89:
 624 03ec 80E0      		ldi r24,lo8(cl.1913)
 625 03ee 90E0      		ldi r25,hi8(cl.1913)
 626 03f0 62E0      		ldi r22,lo8(2)
 627 03f2 0E94 0000 		call GetCLParmStr
 628 03f6 60E0      		ldi r22,lo8(__c.1962)
 629 03f8 70E0      		ldi r23,hi8(__c.1962)
 630 03fa 43E0      		ldi r20,lo8(3)
 631 03fc 50E0      		ldi r21,hi8(3)
 632 03fe 0E94 0000 		call strncmp_P
 633 0402 892B      		or r24,r25
 634 0404 01F4      		brne .L48
 635               	.LM90:
 636 0406 80E0      		ldi r24,lo8(0)
 637 0408 00C0      		rjmp .L66
 638               	.L48:
 639               	.LM91:
 640 040a 80E0      		ldi r24,lo8(cl.1913)
 641 040c 90E0      		ldi r25,hi8(cl.1913)
 642 040e 62E0      		ldi r22,lo8(2)
 643 0410 0E94 0000 		call GetCLParmStr
 644 0414 60E0      		ldi r22,lo8(__c.1964)
 645 0416 70E0      		ldi r23,hi8(__c.1964)
 646 0418 43E0      		ldi r20,lo8(3)
 647 041a 50E0      		ldi r21,hi8(3)
 648 041c 0E94 0000 		call strncmp_P
 649 0420 892B      		or r24,r25
 650 0422 01F0      		breq .+2
 651 0424 00C0      		rjmp .L43
 652               	.LM92:
 653 0426 81E0      		ldi r24,lo8(1)
 654               	.L66:
 655 0428 612F      		mov r22,r17
 656 042a 0E94 0000 		call can_testTransmit
 657 042e 00C0      		rjmp .L29
 658               	.LVL22:
 659               	.L47:
 660               	.LM93:
 661 0430 80E0      		ldi r24,lo8(cl.1913)
 662 0432 90E0      		ldi r25,hi8(cl.1913)
 663 0434 61E0      		ldi r22,lo8(1)
 664 0436 0E94 0000 		call GetCLParmStr
 665 043a 60E0      		ldi r22,lo8(__c.1966)
 666 043c 70E0      		ldi r23,hi8(__c.1966)
 667 043e 43E0      		ldi r20,lo8(3)
 668 0440 50E0      		ldi r21,hi8(3)
 669 0442 0E94 0000 		call strncmp_P
 670 0446 892B      		or r24,r25
 671 0448 01F4      		brne .L50
 672               	.LM94:
 673 044a 80E0      		ldi r24,lo8(cl.1913)
 674 044c 90E0      		ldi r25,hi8(cl.1913)
 675 044e 62E0      		ldi r22,lo8(2)
 676 0450 0E94 0000 		call GetCLParmStr
 677 0454 60E0      		ldi r22,lo8(__c.1968)
 678 0456 70E0      		ldi r23,hi8(__c.1968)
 679 0458 42E0      		ldi r20,lo8(2)
 680 045a 50E0      		ldi r21,hi8(2)
 681 045c 0E94 0000 		call strncmp_P
 682 0460 892B      		or r24,r25
 683 0462 01F4      		brne .L51
 684               	.LM95:
 685 0464 1092 0000 		sts gCANAutoProcess,__zero_reg__
 686 0468 00C0      		rjmp .L29
 687               	.L51:
 688               	.LM96:
 689 046a 80E0      		ldi r24,lo8(cl.1913)
 690 046c 90E0      		ldi r25,hi8(cl.1913)
 691 046e 62E0      		ldi r22,lo8(2)
 692 0470 0E94 0000 		call GetCLParmStr
 693 0474 60E0      		ldi r22,lo8(__c.1970)
 694 0476 70E0      		ldi r23,hi8(__c.1970)
 695 0478 42E0      		ldi r20,lo8(2)
 696 047a 50E0      		ldi r21,hi8(2)
 697 047c 0E94 0000 		call strncmp_P
 698 0480 892B      		or r24,r25
 699 0482 01F4      		brne .L43
 700               	.LM97:
 701 0484 81E0      		ldi r24,lo8(1)
 702 0486 8093 0000 		sts gCANAutoProcess,r24
 703 048a 00C0      		rjmp .L29
 704               	.L50:
 705               	.LM98:
 706 048c 80E0      		ldi r24,lo8(cl.1913)
 707 048e 90E0      		ldi r25,hi8(cl.1913)
 708 0490 61E0      		ldi r22,lo8(1)
 709 0492 0E94 0000 		call GetCLParmStr
 710 0496 60E0      		ldi r22,lo8(__c.1972)
 711 0498 70E0      		ldi r23,hi8(__c.1972)
 712 049a 43E0      		ldi r20,lo8(3)
 713 049c 50E0      		ldi r21,hi8(3)
 714 049e 0E94 0000 		call strncmp_P
 715 04a2 892B      		or r24,r25
 716 04a4 01F4      		brne .L43
 717               	.LM99:
 718 04a6 80E0      		ldi r24,lo8(cl.1913)
 719 04a8 90E0      		ldi r25,hi8(cl.1913)
 720 04aa 62E0      		ldi r22,lo8(2)
 721 04ac 0E94 0000 		call GetCLParmStr
 722 04b0 60E0      		ldi r22,lo8(__c.1974)
 723 04b2 70E0      		ldi r23,hi8(__c.1974)
 724 04b4 42E0      		ldi r20,lo8(2)
 725 04b6 50E0      		ldi r21,hi8(2)
 726 04b8 0E94 0000 		call strncmp_P
 727 04bc 892B      		or r24,r25
 728 04be 01F4      		brne .L54
 729               	.LM100:
 730 04c0 1092 0000 		sts gTimedSend,__zero_reg__
 731 04c4 00C0      		rjmp .L29
 732               	.L54:
 733               	.LM101:
 734 04c6 80E0      		ldi r24,lo8(cl.1913)
 735 04c8 90E0      		ldi r25,hi8(cl.1913)
 736 04ca 62E0      		ldi r22,lo8(2)
 737 04cc 0E94 0000 		call GetCLParmStr
 738 04d0 60E0      		ldi r22,lo8(__c.1976)
 739 04d2 70E0      		ldi r23,hi8(__c.1976)
 740 04d4 42E0      		ldi r20,lo8(2)
 741 04d6 50E0      		ldi r21,hi8(2)
 742 04d8 0E94 0000 		call strncmp_P
 743 04dc 892B      		or r24,r25
 744 04de 01F4      		brne .L43
 745               	.LM102:
 746 04e0 81E0      		ldi r24,lo8(1)
 747 04e2 8093 0000 		sts gTimedSend,r24
 748 04e6 00C0      		rjmp .L29
 749               	.LVL23:
 750               	.L43:
 751               	.LM103:
 752 04e8 82E0      		ldi r24,lo8(2)
 753 04ea 0E94 0000 		call TellError
 754               	.L29:
 755               	.LM104:
 756 04ee 1092 0000 		sts cl.1913,__zero_reg__
 757               	.LVL24:
 758               	.L56:
 759               	/* epilogue start */
 760               	.LM105:
 761 04f2 6096      		adiw r28,16
 762 04f4 0FB6      		in __tmp_reg__,__SREG__
 763 04f6 F894      		cli
 764 04f8 DEBF      		out __SP_H__,r29
 765 04fa 0FBE      		out __SREG__,__tmp_reg__
 766 04fc CDBF      		out __SP_L__,r28
 767 04fe CF91      		pop r28
 768 0500 DF91      		pop r29
 769 0502 1F91      		pop r17
 770               	.LVL25:
 771 0504 0F91      		pop r16
 772               	.LVL26:
 773 0506 FF90      		pop r15
 774 0508 0895      		ret
 775               	.LFE8:
 777               	.global	gTimedSend
 778               	.global	gTimedSend
 779               		.section .bss
 782               	gTimedSend:
 783 0000 00        		.skip 1,0
 784               		.section	.progmem.data,"a",@progbits
 787               	__c.1976:
 788 0000 6F6E 00   		.string	"on"
 791               	__c.1974:
 792 0003 6F66 6600 		.string	"off"
 795               	__c.1972:
 796 0007 7469 6D65 		.string	"timed"
 796      6400 
 799               	__c.1970:
 800 000d 6F6E 00   		.string	"on"
 803               	__c.1968:
 804 0010 6F66 6600 		.string	"off"
 807               	__c.1966:
 808 0014 6175 746F 		.string	"auto"
 808      00
 811               	__c.1964:
 812 0019 6578 7400 		.string	"ext"
 815               	__c.1962:
 816 001d 7374 6400 		.string	"std"
 819               	__c.1960:
 820 0021 7365 6E64 		.string	"send"
 820      00
 823               	__c.1955:
 824 0026 7265 6164 		.string	"read"
 824      00
 827               	__c.1953:
 828 002b 6361 6E00 		.string	"can"
 831               	__c.1951:
 832 002f 4D43 5020 		.string	"MCP Error Flag"
 832      4572 726F 
 832      7220 466C 
 832      6167 00
 835               	__c.1949:
 836 003e 4D43 5020 		.string	"MCP Receiver Error Count"
 836      5265 6365 
 836      6976 6572 
 836      2045 7272 
 836      6F72 2043 
 839               	__c.1947:
 840 0057 4D43 5020 		.string	"MCP Transmit Error Count"
 840      5472 616E 
 840      736D 6974 
 840      2045 7272 
 840      6F72 2043 
 843               	__c.1945:
 844 0070 6572 726F 		.string	"error"
 844      7200 
 847               	__c.1943:
 848 0076 4D43 502D 		.string	"MCP-Status-Byte"
 848      5374 6174 
 848      7573 2D42 
 848      7974 6500 
 851               	__c.1941:
 852 0086 7374 6174 		.string	"stat"
 852      00
 855               	__c.1939:
 856 008b 6D63 7000 		.string	"mcp"
 859               	__c.1937:
 860 008f 746F 6767 		.string	"toggle"
 860      6C65 00
 863               	__c.1935:
 864 0096 6F6E 00   		.string	"on"
 867               	__c.1933:
 868 0099 6F66 6600 		.string	"off"
 871               	__c.1931:
 872 009d 6C65 6400 		.string	"led"
 875               	__c.1929:
 876 00a1 7379 7300 		.string	"sys"
 879               	__c.1927:
 880 00a5 7368 6F77 		.string	"show"
 880      00
 883               	__c.1925:
 884 00aa 0A53 6865 		.string	"\nShell exit\n"
 884      6C6C 2065 
 884      7869 740A 
 884      00
 887               	__c.1923:
 888 00b7 6578 6974 		.string	"exit"
 888      00
 891               	__c.1921:
 892 00bc 6865 6C70 		.string	"help"
 892      00
 895               	__c.1919:
 896 00c1 0A4D 5453 		.string	"\nMTSHELL>"
 896      4845 4C4C 
 896      3E00 
 899               	__c.1917:
 900 00cb 0A4D 5453 		.string	"\nMTSHELL>"
 900      4845 4C4C 
 900      3E00 
 901               		.lcomm getState.1914,1
 902               		.lcomm cl.1913,50
 903               		.lcomm len.1858,1
 906               	__c.1828:
 907 00d5 6361 6E   		.ascii	"can"
 908 00d8 2061 7574 		.string	" auto on|off - (de)activte autoprocessing of incoming messages\n\n"
 908      6F20 6F6E 
 908      7C6F 6666 
 908      202D 2028 
 908      6465 2961 
 911               	__c.1826:
 912 0119 6361 6E20 		.ascii	"can "
 913 011d 7469 6D65 		.string	"timed on|off - (de)activte sending messages (to debug receiver)\n"
 913      6420 6F6E 
 913      7C6F 6666 
 913      202D 2028 
 913      6465 2961 
 916               	__c.1824:
 917 015e 6361 6E20 		.ascii	"can send"
 917      7365 6E64 
 918 0166 2065 7874 		.string	" ext|std num - send can mesg std. or extended with 3rd byte=num\n"
 918      7C73 7464 
 918      206E 756D 
 918      202D 2073 
 918      656E 6420 
 921               	__c.1822:
 922 01a7 6361 6E20 		.string	"can read - print all available messages\n"
 922      7265 6164 
 922      202D 2070 
 922      7269 6E74 
 922      2061 6C6C 
 925               	__c.1820:
 926 01d0 6D63 7020 		.string	"mcp error - show mcp error counters and error flag\n"
 926      6572 726F 
 926      7220 2D20 
 926      7368 6F77 
 926      206D 6370 
 929               	__c.1818:
 930 0204 6D63 7020 		.string	"mcp stat - show mcp status byte\n"
 930      7374 6174 
 930      202D 2073 
 930      686F 7720 
 930      6D63 7020 
 933               	__c.1816:
 934 0225 6C65 6420 		.string	"led toogle num - toogle LED num (1-3)\n"
 934      746F 6F67 
 934      6C65 206E 
 934      756D 202D 
 934      2074 6F6F 
 937               	__c.1814:
 938 024c 6C65 6420 		.string	"led on|off - all LEDs on/off\n"
 938      6F6E 7C6F 
 938      6666 202D 
 938      2061 6C6C 
 938      204C 4544 
 941               	__c.1812:
 942 026a 7368 6F77 		.string	"show sys - print system values\n"
 942      2073 7973 
 942      202D 2070 
 942      7269 6E74 
 942      2073 7973 
 945               	__c.1810:
 946 028a 6578 6974 		.string	"exit - exit from shell\n"
 946      202D 2065 
 946      7869 7420 
 946      6672 6F6D 
 946      2073 6865 
 949               	__c.1849:
 950 02a2 0A00      		.string	"\n"
 953               	__c.1847:
 954 02a4 4F66 6600 		.string	"Off"
 957               	__c.1845:
 958 02a8 4F6E 00   		.string	"On"
 961               	__c.1843:
 962 02ab 4175 746F 		.string	"Auto Send of CAN-Message: "
 962      2053 656E 
 962      6420 6F66 
 962      2043 414E 
 962      2D4D 6573 
 965               	__c.1841:
 966 02c6 0A00      		.string	"\n"
 969               	__c.1839:
 970 02c8 4F66 6600 		.string	"Off"
 973               	__c.1837:
 974 02cc 4F6E 00   		.string	"On"
 977               	__c.1835:
 978 02cf 4175 746F 		.string	"Auto Processing of CAN-Message: "
 978      2050 726F 
 978      6365 7373 
 978      696E 6720 
 978      6F66 2043 
 981               	__c.1833:
 982 02f0 436F 6E66 		.string	"Config-Dump :\n"
 982      6967 2D44 
 982      756D 7020 
 982      3A0A 00
 985               	__c.1907:
 986 02ff 496E 7661 		.string	"Invalid Error-Code\n"
 986      6C69 6420 
 986      4572 726F 
 986      722D 436F 
 986      6465 0A00 
 989               	__c.1903:
 990 0313 436F 6D6D 		.string	"Command or Option unknown\n"
 990      616E 6420 
 990      6F72 204F 
 990      7074 696F 
 990      6E20 756E 
 1031               	.Letext0:
DEFINED SYMBOLS
                            *ABS*:00000000 terminal.c
     /tmp/ccZSzB6i.s:2      *ABS*:0000003f __SREG__
     /tmp/ccZSzB6i.s:3      *ABS*:0000003e __SP_H__
     /tmp/ccZSzB6i.s:4      *ABS*:0000003d __SP_L__
     /tmp/ccZSzB6i.s:5      *ABS*:00000034 __CCP__
     /tmp/ccZSzB6i.s:6      *ABS*:00000000 __tmp_reg__
     /tmp/ccZSzB6i.s:7      *ABS*:00000001 __zero_reg__
     /tmp/ccZSzB6i.s:19     .text:00000000 GetCLParmStr
     /tmp/ccZSzB6i.s:82     .text:00000048 TellError
     /tmp/ccZSzB6i.s:989    .progmem.data:00000313 __c.1903
     /tmp/ccZSzB6i.s:985    .progmem.data:000002ff __c.1907
     /tmp/ccZSzB6i.s:109    .text:0000005c CommandShell
     /tmp/ccZSzB6i.s:899    .progmem.data:000000cb __c.1917
                             .bss:00000001 getState.1914
     /tmp/ccZSzB6i.s:895    .progmem.data:000000c1 __c.1919
     /tmp/ccZSzB6i.s:901    .bss:00000002 cl.1913
     /tmp/ccZSzB6i.s:902    .bss:00000034 len.1858
     /tmp/ccZSzB6i.s:891    .progmem.data:000000bc __c.1921
     /tmp/ccZSzB6i.s:945    .progmem.data:0000028a __c.1810
     /tmp/ccZSzB6i.s:941    .progmem.data:0000026a __c.1812
     /tmp/ccZSzB6i.s:937    .progmem.data:0000024c __c.1814
     /tmp/ccZSzB6i.s:933    .progmem.data:00000225 __c.1816
     /tmp/ccZSzB6i.s:929    .progmem.data:00000204 __c.1818
     /tmp/ccZSzB6i.s:925    .progmem.data:000001d0 __c.1820
     /tmp/ccZSzB6i.s:921    .progmem.data:000001a7 __c.1822
     /tmp/ccZSzB6i.s:916    .progmem.data:0000015e __c.1824
     /tmp/ccZSzB6i.s:911    .progmem.data:00000119 __c.1826
     /tmp/ccZSzB6i.s:906    .progmem.data:000000d5 __c.1828
     /tmp/ccZSzB6i.s:887    .progmem.data:000000b7 __c.1923
     /tmp/ccZSzB6i.s:883    .progmem.data:000000aa __c.1925
     /tmp/ccZSzB6i.s:879    .progmem.data:000000a5 __c.1927
     /tmp/ccZSzB6i.s:875    .progmem.data:000000a1 __c.1929
     /tmp/ccZSzB6i.s:981    .progmem.data:000002f0 __c.1833
     /tmp/ccZSzB6i.s:977    .progmem.data:000002cf __c.1835
     /tmp/ccZSzB6i.s:973    .progmem.data:000002cc __c.1837
     /tmp/ccZSzB6i.s:969    .progmem.data:000002c8 __c.1839
     /tmp/ccZSzB6i.s:965    .progmem.data:000002c6 __c.1841
     /tmp/ccZSzB6i.s:961    .progmem.data:000002ab __c.1843
     /tmp/ccZSzB6i.s:782    .bss:00000000 gTimedSend
     /tmp/ccZSzB6i.s:957    .progmem.data:000002a8 __c.1845
     /tmp/ccZSzB6i.s:953    .progmem.data:000002a4 __c.1847
     /tmp/ccZSzB6i.s:949    .progmem.data:000002a2 __c.1849
     /tmp/ccZSzB6i.s:871    .progmem.data:0000009d __c.1931
     /tmp/ccZSzB6i.s:867    .progmem.data:00000099 __c.1933
     /tmp/ccZSzB6i.s:863    .progmem.data:00000096 __c.1935
     /tmp/ccZSzB6i.s:859    .progmem.data:0000008f __c.1937
     /tmp/ccZSzB6i.s:855    .progmem.data:0000008b __c.1939
     /tmp/ccZSzB6i.s:851    .progmem.data:00000086 __c.1941
     /tmp/ccZSzB6i.s:847    .progmem.data:00000076 __c.1943
     /tmp/ccZSzB6i.s:843    .progmem.data:00000070 __c.1945
     /tmp/ccZSzB6i.s:839    .progmem.data:00000057 __c.1947
     /tmp/ccZSzB6i.s:835    .progmem.data:0000003e __c.1949
     /tmp/ccZSzB6i.s:831    .progmem.data:0000002f __c.1951
     /tmp/ccZSzB6i.s:827    .progmem.data:0000002b __c.1953
     /tmp/ccZSzB6i.s:823    .progmem.data:00000026 __c.1955
     /tmp/ccZSzB6i.s:819    .progmem.data:00000021 __c.1960
     /tmp/ccZSzB6i.s:815    .progmem.data:0000001d __c.1962
     /tmp/ccZSzB6i.s:811    .progmem.data:00000019 __c.1964
     /tmp/ccZSzB6i.s:807    .progmem.data:00000014 __c.1966
     /tmp/ccZSzB6i.s:803    .progmem.data:00000010 __c.1968
     /tmp/ccZSzB6i.s:799    .progmem.data:0000000d __c.1970
     /tmp/ccZSzB6i.s:795    .progmem.data:00000007 __c.1972
     /tmp/ccZSzB6i.s:791    .progmem.data:00000003 __c.1974
     /tmp/ccZSzB6i.s:787    .progmem.data:00000000 __c.1976

UNDEFINED SYMBOLS
__do_copy_data
__do_clear_bss
term_puts_p
term_puts
term_getc
term_putc
term_put_cr
strncmp_P
gCANAutoProcess
gpio_clear_led
gpio_set_led
atoi
gpio_toggle_led
mcp2515_readStatus
mcp2515_readRegister
Debug_ByteToUart_p
can_dumpMessage
can_readMessage
can_testTransmit
